; Function Attrs: mustprogress uwtable
define noundef nonnull align 8 dereferenceable(16) ptr @_ZNK32pxrInternal_v0_24__pxrReserved__7VtValue9GetTypeidEv(ptr noundef nonnull align 8 dereferenceable(16) %0) local_unnamed_addr #0 align 2 personality ptr @__gxx_personality_v0 {
  %2 = getelementptr inbounds nuw i8, ptr %0, i64 8
  %3 = load ptr, ptr %2, align 8
  %.not = icmp eq ptr %3, null
  br i1 %.not, label %11, label %4

4:                                                ; preds = %1
  %5 = ptrtoint ptr %3 to i64
  %6 = and i64 %5, -8
  %7 = inttoptr i64 %6 to ptr
  %8 = getelementptr inbounds nuw i8, ptr %7, i64 160
  %9 = load ptr, ptr %8, align 8
  %10 = tail call noundef nonnull align 8 dereferenceable(16) ptr %9(ptr noundef nonnull align 8 dereferenceable(8) %0)
  br label %11

11:                                               ; preds = %1, %4
  %12 = phi ptr [ %10, %4 ], [ @_ZTIv, %1 ]
  ret ptr %12
}